; Function Attrs: mustprogress nounwind uwtable
define hidden noundef zeroext i1 @_ZN10JNIHandles24current_thread_in_nativeEv() local_unnamed_addr #1 align 2 {
  %1 = tail call align 8 ptr @llvm.threadlocal.address.p0(ptr align 8 @_ZN6Thread12_thr_currentE)
  %2 = load ptr, ptr %1, align 8
  %3 = load ptr, ptr %2, align 8
  %4 = getelementptr inbounds i8, ptr %3, i64 56
  %5 = load ptr, ptr %4, align 8
  %6 = tail call noundef zeroext i1 %5(ptr noundef nonnull align 8 dereferenceable(888) %2) #11
  br i1 %6, label %7, label %11

7:                                                ; preds = %0
  %8 = getelementptr inbounds i8, ptr %2, i64 1092
  %9 = load volatile i32, ptr %8, align 4
  %10 = icmp eq i32 %9, 4
  br label %11

11:                                               ; preds = %7, %0
  %12 = phi i1 [ false, %0 ], [ %10, %7 ]
  ret i1 %12
}